; Function Attrs: mustprogress uwtable
define dso_local void @_ZN3net22QuicCryptoServerStream30SendServerConfigUpdateCallback3RunEbRKNS_22CryptoHandshakeMessageE(ptr nocapture noundef nonnull readonly align 8 dereferenceable(16) %this, i1 noundef zeroext %ok, ptr noundef nonnull align 8 dereferenceable(72) %message) unnamed_addr #0 align 2 {
entry:
  %agg.tmp.i = alloca %"class.base::BasicStringPiece", align 8
  %parent_ = getelementptr inbounds i8, ptr %this, i64 8
  %0 = load ptr, ptr %parent_, align 8
  %cmp = icmp eq ptr %0, null
  br i1 %cmp, label %return, label %if.end

if.end:                                           ; preds = %entry
  call void @llvm.lifetime.start.p0(i64 16, ptr nonnull %agg.tmp.i)
  %send_server_config_update_cb_.i = getelementptr inbounds i8, ptr %0, i64 1232
  store ptr null, ptr %send_server_config_update_cb_.i, align 8
  br i1 %ok, label %if.end.i, label %_ZN3net22QuicCryptoServerStream28FinishSendServerConfigUpdateEbRKNS_22CryptoHandshakeMessageE.exit

if.end.i:                                         ; preds = %if.end
  %call.i = tail call noundef nonnull align 8 dereferenceable(25) ptr @_ZNK3net22CryptoHandshakeMessage13GetSerializedEv(ptr noundef nonnull align 8 dereferenceable(72) %message)
  %buffer_.i.i = getelementptr inbounds i8, ptr %call.i, i64 8
  %1 = load ptr, ptr %buffer_.i.i, align 8
  %length_.i.i = getelementptr inbounds i8, ptr %call.i, i64 16
  %2 = load i64, ptr %length_.i.i, align 8
  call void @_ZN4base16BasicStringPieceINSt7__cxx1112basic_stringIcSt11char_traitsIcESaIcEEEEC1EPKcm(ptr noundef nonnull align 8 dereferenceable(16) %agg.tmp.i, ptr noundef %1, i64 noundef %2)
  %3 = load ptr, ptr %agg.tmp.i, align 8
  %4 = getelementptr inbounds i8, ptr %agg.tmp.i, i64 8
  %5 = load i64, ptr %4, align 8
  call void @_ZN3net18ReliableQuicStream17WriteOrBufferDataEN4base16BasicStringPieceINSt7__cxx1112basic_stringIcSt11char_traitsIcESaIcEEEEEbPNS_24QuicAckListenerInterfaceE(ptr noundef nonnull align 8 dereferenceable(377) %0, ptr %3, i64 %5, i1 noundef zeroext false, ptr noundef null)
  %num_server_config_update_messages_sent_.i = getelementptr inbounds i8, ptr %0, i64 1240
  %6 = load i32, ptr %num_server_config_update_messages_sent_.i, align 8
  %inc.i = add nsw i32 %6, 1
  store i32 %inc.i, ptr %num_server_config_update_messages_sent_.i, align 8
  br label %_ZN3net22QuicCryptoServerStream28FinishSendServerConfigUpdateEbRKNS_22CryptoHandshakeMessageE.exit

_ZN3net22QuicCryptoServerStream28FinishSendServerConfigUpdateEbRKNS_22CryptoHandshakeMessageE.exit: ; preds = %if.end, %if.end.i
  call void @llvm.lifetime.end.p0(i64 16, ptr nonnull %agg.tmp.i)
  br label %return

return:                                           ; preds = %entry, %_ZN3net22QuicCryptoServerStream28FinishSendServerConfigUpdateEbRKNS_22CryptoHandshakeMessageE.exit
  ret void
}